Certificate:
    Data:
        Version: 3 (0x2)
        Serial Number:
            09:75:89:09:2c:15:4a:59:e1:44:80:6c:65:1a:a1:a1
        Signature Algorithm: sha256WithRSAEncryption
        Issuer: C=FI, ST=Uusimaa, L=Helsinki, O=Codership Oy, OU=Galera Devel, CN=Galera Int/emailAddress=devel@galeracluster.com
        Validity
            Not Before: Jan 21 10:30:06 2021 GMT
            Not After : Jan  6 10:30:06 2024 GMT
        Subject: C=FI, ST=Uusimaa, L=Helsinki, O=Codership Oy, OU=Galera Devel, CN=galera-server-2/emailAddress=devel@galeracluster.com
        Subject Public Key Info:
            Public Key Algorithm: rsaEncryption
                RSA Public-Key: (2048 bit)
                Modulus:
                    00:d7:bf:31:5f:29:58:d4:21:72:36:82:20:58:0e:
                    66:9b:21:44:1e:f3:d7:61:09:78:aa:bb:8e:b6:43:
                    1e:f7:8f:ce:5b:ab:0f:e0:61:b5:62:b2:16:f4:ba:
                    97:98:58:0f:fb:d1:c9:4e:2f:30:27:af:6a:62:82:
                    3a:cb:96:d2:45:35:97:c8:af:79:a7:63:0c:cb:71:
                    56:13:23:a9:c6:36:24:38:d6:e5:e8:69:0a:8a:bd:
                    e9:41:ac:33:3b:3c:7e:d4:c2:ce:23:90:a2:55:e4:
                    70:01:8d:25:16:8a:75:d7:3f:d2:9e:42:b2:49:c8:
                    20:3a:71:36:ce:1d:5e:71:80:b9:96:6e:2c:d5:c5:
                    e9:fa:55:70:59:3d:b9:cd:fa:b9:a0:f6:38:a1:f4:
                    bf:2e:1f:08:4d:31:ad:ab:e2:e2:36:33:d2:f9:2b:
                    3a:6e:94:b4:1c:f1:68:b9:fe:10:7e:75:1b:0b:42:
                    72:fc:64:ad:06:9d:6e:cb:20:fc:5f:ad:86:42:26:
                    cd:f0:39:e8:50:df:79:b7:1d:36:a1:c8:35:ae:4a:
                    a0:f5:e5:c3:c0:2c:27:b6:e2:07:58:4f:19:bd:a2:
                    c6:2f:ca:29:13:45:32:4a:3c:2d:02:99:15:b1:cd:
                    99:89:b5:c5:2f:10:1f:e0:a7:09:63:95:74:13:e0:
                    8a:75
                Exponent: 65537 (0x10001)
        X509v3 extensions:
            X509v3 Basic Constraints: 
                CA:FALSE
            X509v3 Subject Key Identifier: 
                B9:CD:B9:3B:01:07:CE:D8:5E:37:96:1E:6B:A7:34:E0:78:60:73:16
            X509v3 Authority Key Identifier: 
                keyid:C7:1F:75:96:5D:5A:4A:CD:71:AB:39:78:3E:1D:80:2D:B4:13:C2:FF
                DirName:/C=FI/ST=Uusimaa/L=Helsinki/O=Codership Oy/OU=Galera Devel/CN=Galera Root CA/emailAddress=devel@galeracluster.com
                serial:92:CE:97:05:D3:DA:44:B3:CE:1E:D7:DA:F9:FE:E0:90

            X509v3 Key Usage: 
                Digital Signature, Key Encipherment
            X509v3 Subject Alternative Name: 
                DNS:galera-server-2
    Signature Algorithm: sha256WithRSAEncryption
         95:f7:c7:6c:dc:2b:7f:b2:f9:d8:24:54:de:80:66:36:90:7c:
         52:42:ea:47:86:af:0d:81:e3:19:e5:f8:6b:f7:c7:47:17:64:
         57:0d:8e:30:20:f6:23:60:cd:4e:b3:e8:d7:be:b0:07:42:e0:
         24:04:46:22:ec:6f:c8:4a:40:03:46:d3:08:08:1e:9f:47:1a:
         8c:fa:ab:eb:2c:3b:9a:6c:8c:72:95:23:0f:55:dd:6b:0d:65:
         d2:4a:da:45:58:8f:e5:5c:48:b7:dc:4a:63:ba:58:8d:7b:37:
         26:6e:4a:fe:9d:f3:c4:52:d8:e5:6c:1c:26:7f:6b:98:f0:b9:
         51:7a:e8:d5:33:fc:b1:77:25:3a:ac:88:ab:23:81:d7:60:9c:
         53:b2:9b:2b:72:62:ac:52:e9:8e:70:80:1a:ca:8e:54:d4:f8:
         75:56:7d:36:9e:12:9a:33:58:35:4b:d0:ad:fd:52:b1:18:f0:
         cd:89:08:12:9c:65:a8:ea:ee:57:87:62:66:1c:f4:d7:40:4d:
         5c:88:9b:fb:74:84:02:58:31:1a:cc:93:1c:86:bd:44:f7:6a:
         bc:24:07:01:f5:49:85:0d:a8:7a:dd:55:99:e7:35:be:68:8c:
         ee:88:28:4d:51:90:d5:2b:61:16:a1:a2:e2:7f:ea:e6:c6:6f:
         6d:d3:43:a7
-----BEGIN CERTIFICATE-----
MIIFBTCCA+2gAwIBAgIQCXWJCSwVSlnhRIBsZRqhoTANBgkqhkiG9w0BAQsFADCB
nTELMAkGA1UEBhMCRkkxEDAOBgNVBAgMB1V1c2ltYWExETAPBgNVBAcMCEhlbHNp
bmtpMRUwEwYDVQQKDAxDb2RlcnNoaXAgT3kxFTATBgNVBAsMDEdhbGVyYSBEZXZl
bDETMBEGA1UEAwwKR2FsZXJhIEludDEmMCQGCSqGSIb3DQEJARYXZGV2ZWxAZ2Fs
ZXJhY2x1c3Rlci5jb20wHhcNMjEwMTIxMTAzMDA2WhcNMjQwMTA2MTAzMDA2WjCB
ojELMAkGA1UEBhMCRkkxEDAOBgNVBAgMB1V1c2ltYWExETAPBgNVBAcMCEhlbHNp
bmtpMRUwEwYDVQQKDAxDb2RlcnNoaXAgT3kxFTATBgNVBAsMDEdhbGVyYSBEZXZl
bDEYMBYGA1UEAwwPZ2FsZXJhLXNlcnZlci0yMSYwJAYJKoZIhvcNAQkBFhdkZXZl
bEBnYWxlcmFjbHVzdGVyLmNvbTCCASIwDQYJKoZIhvcNAQEBBQADggEPADCCAQoC
ggEBANe/MV8pWNQhcjaCIFgOZpshRB7z12EJeKq7jrZDHvePzlurD+BhtWKyFvS6
l5hYD/vRyU4vMCevamKCOsuW0kU1l8iveadjDMtxVhMjqcY2JDjW5ehpCoq96UGs
Mzs8ftTCziOQolXkcAGNJRaKddc/0p5CsknIIDpxNs4dXnGAuZZuLNXF6fpVcFk9
uc36uaD2OKH0vy4fCE0xravi4jYz0vkrOm6UtBzxaLn+EH51GwtCcvxkrQadbssg
/F+thkImzfA56FDfebcdNqHINa5KoPXlw8AsJ7biB1hPGb2ixi/KKRNFMko8LQKZ
FbHNmYm1xS8QH+CnCWOVdBPginUCAwEAAaOCATgwggE0MAkGA1UdEwQCMAAwHQYD
VR0OBBYEFLnNuTsBB87YXjeWHmunNOB4YHMWMIHeBgNVHSMEgdYwgdOAFMcfdZZd
WkrNcas5eD4dgC20E8L/oYGnpIGkMIGhMQswCQYDVQQGEwJGSTEQMA4GA1UECAwH
VXVzaW1hYTERMA8GA1UEBwwISGVsc2lua2kxFTATBgNVBAoMDENvZGVyc2hpcCBP
eTEVMBMGA1UECwwMR2FsZXJhIERldmVsMRcwFQYDVQQDDA5HYWxlcmEgUm9vdCBD
QTEmMCQGCSqGSIb3DQEJARYXZGV2ZWxAZ2FsZXJhY2x1c3Rlci5jb22CEQCSzpcF
09pEs84e19r5/uCQMAsGA1UdDwQEAwIFoDAaBgNVHREEEzARgg9nYWxlcmEtc2Vy
dmVyLTIwDQYJKoZIhvcNAQELBQADggEBAJX3x2zcK3+y+dgkVN6AZjaQfFJC6keG
rw2B4xnl+Gv3x0cXZFcNjjAg9iNgzU6z6Ne+sAdC4CQERiLsb8hKQANG0wgIHp9H
Goz6q+ssO5psjHKVIw9V3WsNZdJK2kVYj+VcSLfcSmO6WI17NyZuSv6d88RS2OVs
HCZ/a5jwuVF66NUz/LF3JTqsiKsjgddgnFOymytyYqxS6Y5wgBrKjlTU+HVWfTae
EpozWDVL0K39UrEY8M2JCBKcZajq7leHYmYc9NdATVyIm/t0hAJYMRrMkxyGvUT3
arwkBwH1SYUNqHrdVZnnNb5ojO6IKE1RkNUrYRahouJ/6ubGb23TQ6c=
-----END CERTIFICATE-----
