Certificate:
    Data:
        Version: 3 (0x2)
        Serial Number:
            2f:5c:d5:66:b6:b8:4f:56:0f:d9:f8:25:9b:b1:ae:5e
        Signature Algorithm: sha256WithRSAEncryption
        Issuer: C=FI, ST=Uusimaa, L=Helsinki, O=Codership Oy, OU=Galera Devel, CN=Galera Int/emailAddress=devel@galeracluster.com
        Validity
            Not Before: Jan 21 10:30:06 2021 GMT
            Not After : Jan  6 10:30:06 2024 GMT
        Subject: C=FI, ST=Uusimaa, L=Helsinki, O=Codership Oy, OU=Galera Devel, CN=galera-server-3/emailAddress=devel@galeracluster.com
        Subject Public Key Info:
            Public Key Algorithm: rsaEncryption
                RSA Public-Key: (2048 bit)
                Modulus:
                    00:b4:83:c2:ec:a8:91:e8:31:ab:07:05:97:95:c9:
                    d6:82:a1:8e:47:96:43:83:fc:f8:c9:e4:73:e7:b8:
                    9d:61:22:20:44:65:b5:8f:59:c8:3d:b1:a5:84:f7:
                    7c:79:2b:23:b4:dc:aa:a0:b2:a2:2d:d9:a4:46:fd:
                    4c:28:61:83:b5:67:31:70:81:3f:15:a0:38:19:e8:
                    50:47:82:37:4f:06:d0:f2:db:57:ef:b1:b9:44:2f:
                    dd:70:a8:b6:44:31:69:53:70:cd:76:24:ab:3a:35:
                    be:68:23:8c:30:52:2a:d5:45:f2:16:5c:62:bd:ba:
                    bc:f0:d8:52:b6:97:1f:38:99:c2:b1:d2:1c:bf:cf:
                    76:77:10:0c:f3:68:53:e8:a2:a8:9c:89:6b:d2:62:
                    7e:d6:d5:0a:73:d6:bf:f3:35:d9:20:9c:ec:5e:4d:
                    c1:08:68:2f:9f:ac:e6:22:49:f8:31:99:78:1f:73:
                    e1:92:13:a7:79:05:c1:b8:91:be:fb:25:a0:3d:ac:
                    4f:a8:33:bf:53:6e:5d:0d:83:e2:03:d9:03:d2:f2:
                    df:b3:de:b1:2e:b5:a1:0e:25:52:15:ad:e1:9b:76:
                    46:7c:f9:c0:87:00:04:8c:a8:32:f1:39:5f:6e:f3:
                    a1:05:36:6d:ab:82:21:0f:cd:18:37:ec:ad:f2:48:
                    bc:c5
                Exponent: 65537 (0x10001)
        X509v3 extensions:
            X509v3 Basic Constraints: 
                CA:FALSE
            X509v3 Subject Key Identifier: 
                40:AA:07:8D:B7:E6:BA:A8:F1:46:89:E9:4F:5F:9D:8D:B1:40:97:1D
            X509v3 Authority Key Identifier: 
                keyid:C7:1F:75:96:5D:5A:4A:CD:71:AB:39:78:3E:1D:80:2D:B4:13:C2:FF
                DirName:/C=FI/ST=Uusimaa/L=Helsinki/O=Codership Oy/OU=Galera Devel/CN=Galera Root CA/emailAddress=devel@galeracluster.com
                serial:92:CE:97:05:D3:DA:44:B3:CE:1E:D7:DA:F9:FE:E0:90

            X509v3 Key Usage: 
                Digital Signature, Key Encipherment
            X509v3 Subject Alternative Name: 
                DNS:galera-server-3
    Signature Algorithm: sha256WithRSAEncryption
         1f:b7:e2:94:f0:23:0f:26:39:b6:e2:f4:68:ca:47:0d:1e:5c:
         49:bb:19:14:d8:8b:3f:88:d9:05:c6:69:9a:bb:d4:61:ef:19:
         dd:e2:c8:68:26:77:0c:fc:7d:fc:00:75:de:01:b9:98:cd:10:
         23:18:b9:e0:6b:0e:73:5d:63:3f:22:95:18:df:11:04:0d:3a:
         43:4e:7e:3b:75:ee:9f:cd:1c:4d:05:92:c4:8b:3c:02:22:f5:
         ec:1a:50:32:ff:a1:5b:cf:8d:07:4a:a4:97:a1:bf:6a:5c:b1:
         24:ef:2b:d6:0d:7c:70:1d:58:35:8b:da:e3:37:be:cc:94:cb:
         2a:05:aa:32:de:a6:00:9c:c4:f6:cb:ec:0a:fe:cc:2f:dc:e7:
         76:7f:61:30:23:ae:fe:ff:f6:57:34:9c:3d:8f:ff:b3:0a:6f:
         7b:f9:fc:e2:5b:aa:17:a2:8d:10:5f:46:ee:23:98:a9:06:b9:
         2c:11:52:fe:14:ed:02:4c:85:af:06:d0:f7:bb:f8:aa:d3:9b:
         0f:5c:5c:10:df:7c:a8:ee:6a:c7:b9:67:e3:9e:fe:cc:24:66:
         08:3b:6f:80:53:1d:99:e5:94:a0:d9:bc:27:ab:1a:26:c7:04:
         0e:d2:3e:5c:5d:ac:7d:06:1a:de:d5:28:bd:b5:96:23:59:e2:
         9b:2a:cb:0a
-----BEGIN CERTIFICATE-----
MIIFBTCCA+2gAwIBAgIQL1zVZra4T1YP2fglm7GuXjANBgkqhkiG9w0BAQsFADCB
nTELMAkGA1UEBhMCRkkxEDAOBgNVBAgMB1V1c2ltYWExETAPBgNVBAcMCEhlbHNp
bmtpMRUwEwYDVQQKDAxDb2RlcnNoaXAgT3kxFTATBgNVBAsMDEdhbGVyYSBEZXZl
bDETMBEGA1UEAwwKR2FsZXJhIEludDEmMCQGCSqGSIb3DQEJARYXZGV2ZWxAZ2Fs
ZXJhY2x1c3Rlci5jb20wHhcNMjEwMTIxMTAzMDA2WhcNMjQwMTA2MTAzMDA2WjCB
ojELMAkGA1UEBhMCRkkxEDAOBgNVBAgMB1V1c2ltYWExETAPBgNVBAcMCEhlbHNp
bmtpMRUwEwYDVQQKDAxDb2RlcnNoaXAgT3kxFTATBgNVBAsMDEdhbGVyYSBEZXZl
bDEYMBYGA1UEAwwPZ2FsZXJhLXNlcnZlci0zMSYwJAYJKoZIhvcNAQkBFhdkZXZl
bEBnYWxlcmFjbHVzdGVyLmNvbTCCASIwDQYJKoZIhvcNAQEBBQADggEPADCCAQoC
ggEBALSDwuyokegxqwcFl5XJ1oKhjkeWQ4P8+Mnkc+e4nWEiIERltY9ZyD2xpYT3
fHkrI7TcqqCyoi3ZpEb9TChhg7VnMXCBPxWgOBnoUEeCN08G0PLbV++xuUQv3XCo
tkQxaVNwzXYkqzo1vmgjjDBSKtVF8hZcYr26vPDYUraXHziZwrHSHL/PdncQDPNo
U+iiqJyJa9JiftbVCnPWv/M12SCc7F5NwQhoL5+s5iJJ+DGZeB9z4ZITp3kFwbiR
vvsloD2sT6gzv1NuXQ2D4gPZA9Ly37PesS61oQ4lUhWt4Zt2Rnz5wIcABIyoMvE5
X27zoQU2bauCIQ/NGDfsrfJIvMUCAwEAAaOCATgwggE0MAkGA1UdEwQCMAAwHQYD
VR0OBBYEFECqB4235rqo8UaJ6U9fnY2xQJcdMIHeBgNVHSMEgdYwgdOAFMcfdZZd
WkrNcas5eD4dgC20E8L/oYGnpIGkMIGhMQswCQYDVQQGEwJGSTEQMA4GA1UECAwH
VXVzaW1hYTERMA8GA1UEBwwISGVsc2lua2kxFTATBgNVBAoMDENvZGVyc2hpcCBP
eTEVMBMGA1UECwwMR2FsZXJhIERldmVsMRcwFQYDVQQDDA5HYWxlcmEgUm9vdCBD
QTEmMCQGCSqGSIb3DQEJARYXZGV2ZWxAZ2FsZXJhY2x1c3Rlci5jb22CEQCSzpcF
09pEs84e19r5/uCQMAsGA1UdDwQEAwIFoDAaBgNVHREEEzARgg9nYWxlcmEtc2Vy
dmVyLTMwDQYJKoZIhvcNAQELBQADggEBAB+34pTwIw8mObbi9GjKRw0eXEm7GRTY
iz+I2QXGaZq71GHvGd3iyGgmdwz8ffwAdd4BuZjNECMYueBrDnNdYz8ilRjfEQQN
OkNOfjt17p/NHE0FksSLPAIi9ewaUDL/oVvPjQdKpJehv2pcsSTvK9YNfHAdWDWL
2uM3vsyUyyoFqjLepgCcxPbL7Ar+zC/c53Z/YTAjrv7/9lc0nD2P/7MKb3v5/OJb
qheijRBfRu4jmKkGuSwRUv4U7QJMha8G0Pe7+KrTmw9cXBDffKjuase5Z+Oe/swk
Zgg7b4BTHZnllKDZvCerGibHBA7SPlxdrH0GGt7VKL21liNZ4psqywo=
-----END CERTIFICATE-----
