Certificate:
    Data:
        Version: 3 (0x2)
        Serial Number:
            92:ce:97:05:d3:da:44:b3:ce:1e:d7:da:f9:fe:e0:90
        Signature Algorithm: sha256WithRSAEncryption
        Issuer: C=FI, ST=Uusimaa, L=Helsinki, O=Codership Oy, OU=Galera Devel, CN=Galera Root CA/emailAddress=devel@galeracluster.com
        Validity
            Not Before: Jan 21 10:30:06 2021 GMT
            Not After : Jan  6 10:30:06 2024 GMT
        Subject: C=FI, ST=Uusimaa, L=Helsinki, O=Codership Oy, OU=Galera Devel, CN=Galera Int/emailAddress=devel@galeracluster.com
        Subject Public Key Info:
            Public Key Algorithm: rsaEncryption
                RSA Public-Key: (2048 bit)
                Modulus:
                    00:ce:bb:bc:30:44:e0:02:e7:61:b7:c3:2a:d0:29:
                    85:d7:7f:ac:54:a6:b6:26:8e:99:97:25:e7:c4:40:
                    3e:96:9a:41:0f:e3:c4:bc:0d:bd:58:2c:68:28:7f:
                    d9:ba:16:05:78:46:34:2c:c1:d7:be:6c:c5:c2:b6:
                    5e:42:84:9f:d3:07:10:d0:11:28:3c:df:74:5a:08:
                    42:33:ea:43:26:71:5f:a0:ae:a5:83:9d:9c:0f:c1:
                    f7:e9:7f:fb:ab:96:ec:8b:be:37:a5:0f:f8:85:1e:
                    5b:f1:25:5b:36:c8:87:99:3f:9a:9c:ce:af:5e:ab:
                    fc:c0:a6:c4:3f:5d:bc:1e:e2:d4:2e:7e:6e:f5:c1:
                    ea:56:ac:37:6a:2d:b6:57:70:e9:c4:2d:af:31:81:
                    99:84:65:dd:ff:e1:52:ad:e3:f6:0c:2b:3e:6d:d2:
                    55:fb:a8:10:f0:a8:51:eb:68:6e:05:19:6c:a7:62:
                    d2:31:ee:61:18:b8:cb:ad:13:f9:59:fb:5f:1d:5f:
                    70:fc:fd:ab:0c:96:24:7b:70:f4:44:6b:ff:a2:96:
                    87:13:a4:f7:ea:f1:89:49:8d:21:a8:77:df:ba:7e:
                    9c:e7:b6:f3:69:42:9a:72:3e:84:c2:e8:09:27:b2:
                    8e:53:d5:cc:8c:50:63:92:a3:4c:55:b8:ce:ee:b0:
                    4d:69
                Exponent: 65537 (0x10001)
        X509v3 extensions:
            X509v3 Basic Constraints: 
                CA:TRUE
            X509v3 Subject Key Identifier: 
                C7:1F:75:96:5D:5A:4A:CD:71:AB:39:78:3E:1D:80:2D:B4:13:C2:FF
            X509v3 Authority Key Identifier: 
                keyid:C4:1B:D8:FB:86:AB:CB:95:38:3B:6B:3A:5E:6F:1A:F8:4F:FF:4A:F0
                DirName:/C=FI/ST=Uusimaa/L=Helsinki/O=Codership Oy/OU=Galera Devel/CN=Galera Root CA/emailAddress=devel@galeracluster.com
                serial:79:21:62:A8:E1:FC:30:07:5F:C4:0F:96:6F:94:05:37:AB:52:BC:33

            X509v3 Key Usage: 
                Certificate Sign, CRL Sign
    Signature Algorithm: sha256WithRSAEncryption
         68:9b:ae:80:48:2e:cf:e4:f8:57:cb:a6:8f:4c:c0:bf:fc:9f:
         58:ec:3e:eb:8e:ec:70:22:69:7c:5d:4f:da:ad:86:49:30:c6:
         1b:72:e4:8e:b0:ee:28:c2:be:ce:9d:21:00:77:57:84:30:fc:
         5c:33:a1:da:ae:9e:31:b5:13:09:55:05:aa:73:3a:b2:ce:28:
         b3:f1:f2:2b:97:f9:50:2b:f7:80:96:92:5c:99:b7:18:01:a0:
         99:9c:de:1e:c7:43:3d:14:de:3e:9d:4c:af:6d:44:8c:28:6c:
         58:45:00:6f:a1:0a:03:91:7a:7b:35:15:82:51:70:8b:8b:83:
         d3:41:4d:60:0f:c8:7f:b9:9b:8b:3a:26:a2:14:bd:26:f5:cf:
         86:b8:b2:f5:c0:75:8d:a2:e0:3f:95:0e:97:5b:53:dc:22:54:
         8c:d6:36:25:d9:37:44:a3:88:12:d8:54:68:7c:58:ef:19:c9:
         54:b1:ab:2d:0a:cc:06:31:bb:74:a3:ee:c6:e7:31:be:92:81:
         00:c8:6a:9c:b7:4d:54:16:20:df:06:fb:58:0c:c0:31:57:9d:
         52:b2:56:a5:76:96:cd:62:2c:8c:bb:5a:76:de:8c:de:40:b0:
         60:ab:52:87:7b:c1:e4:3f:eb:a9:74:8f:d2:97:66:e7:48:a1:
         6f:7c:91:1c
-----BEGIN CERTIFICATE-----
MIIE7zCCA9egAwIBAgIRAJLOlwXT2kSzzh7X2vn+4JAwDQYJKoZIhvcNAQELBQAw
gaExCzAJBgNVBAYTAkZJMRAwDgYDVQQIDAdVdXNpbWFhMREwDwYDVQQHDAhIZWxz
aW5raTEVMBMGA1UECgwMQ29kZXJzaGlwIE95MRUwEwYDVQQLDAxHYWxlcmEgRGV2
ZWwxFzAVBgNVBAMMDkdhbGVyYSBSb290IENBMSYwJAYJKoZIhvcNAQkBFhdkZXZl
bEBnYWxlcmFjbHVzdGVyLmNvbTAeFw0yMTAxMjExMDMwMDZaFw0yNDAxMDYxMDMw
MDZaMIGdMQswCQYDVQQGEwJGSTEQMA4GA1UECAwHVXVzaW1hYTERMA8GA1UEBwwI
SGVsc2lua2kxFTATBgNVBAoMDENvZGVyc2hpcCBPeTEVMBMGA1UECwwMR2FsZXJh
IERldmVsMRMwEQYDVQQDDApHYWxlcmEgSW50MSYwJAYJKoZIhvcNAQkBFhdkZXZl
bEBnYWxlcmFjbHVzdGVyLmNvbTCCASIwDQYJKoZIhvcNAQEBBQADggEPADCCAQoC
ggEBAM67vDBE4ALnYbfDKtAphdd/rFSmtiaOmZcl58RAPpaaQQ/jxLwNvVgsaCh/
2boWBXhGNCzB175sxcK2XkKEn9MHENARKDzfdFoIQjPqQyZxX6CupYOdnA/B9+l/
+6uW7Iu+N6UP+IUeW/ElWzbIh5k/mpzOr16r/MCmxD9dvB7i1C5+bvXB6lasN2ot
tldw6cQtrzGBmYRl3f/hUq3j9gwrPm3SVfuoEPCoUetobgUZbKdi0jHuYRi4y60T
+Vn7Xx1fcPz9qwyWJHtw9ERr/6KWhxOk9+rxiUmNIah337p+nOe282lCmnI+hMLo
CSeyjlPVzIxQY5KjTFW4zu6wTWkCAwEAAaOCASIwggEeMAwGA1UdEwQFMAMBAf8w
HQYDVR0OBBYEFMcfdZZdWkrNcas5eD4dgC20E8L/MIHhBgNVHSMEgdkwgdaAFMQb
2PuGq8uVODtrOl5vGvhP/0rwoYGnpIGkMIGhMQswCQYDVQQGEwJGSTEQMA4GA1UE
CAwHVXVzaW1hYTERMA8GA1UEBwwISGVsc2lua2kxFTATBgNVBAoMDENvZGVyc2hp
cCBPeTEVMBMGA1UECwwMR2FsZXJhIERldmVsMRcwFQYDVQQDDA5HYWxlcmEgUm9v
dCBDQTEmMCQGCSqGSIb3DQEJARYXZGV2ZWxAZ2FsZXJhY2x1c3Rlci5jb22CFHkh
Yqjh/DAHX8QPlm+UBTerUrwzMAsGA1UdDwQEAwIBBjANBgkqhkiG9w0BAQsFAAOC
AQEAaJuugEguz+T4V8umj0zAv/yfWOw+647scCJpfF1P2q2GSTDGG3LkjrDuKMK+
zp0hAHdXhDD8XDOh2q6eMbUTCVUFqnM6ss4os/HyK5f5UCv3gJaSXJm3GAGgmZze
HsdDPRTePp1Mr21EjChsWEUAb6EKA5F6ezUVglFwi4uD00FNYA/If7mbizomohS9
JvXPhriy9cB1jaLgP5UOl1tT3CJUjNY2Jdk3RKOIEthUaHxY7xnJVLGrLQrMBjG7
dKPuxucxvpKBAMhqnLdNVBYg3wb7WAzAMVedUrJWpXaWzWIsjLtadt6M3kCwYKtS
h3vB5D/rqXSP0pdm50ihb3yRHA==
-----END CERTIFICATE-----
