Certificate:
    Data:
        Version: 3 (0x2)
        Serial Number:
            d5:f7:c4:d3:19:e1:68:c4:c1:6b:4a:a5:43:62:4a:95
        Signature Algorithm: sha256WithRSAEncryption
        Issuer: C=FI, ST=Uusimaa, L=Helsinki, O=Codership Oy, OU=Galera Devel, CN=Galera Int/emailAddress=devel@galeracluster.com
        Validity
            Not Before: Jan 21 10:30:06 2021 GMT
            Not After : Jan  6 10:30:06 2024 GMT
        Subject: C=FI, ST=Uusimaa, L=Helsinki, O=Codership Oy, OU=Galera Devel, CN=galera-server-1/emailAddress=devel@galeracluster.com
        Subject Public Key Info:
            Public Key Algorithm: rsaEncryption
                RSA Public-Key: (2048 bit)
                Modulus:
                    00:a6:e7:d0:7b:91:6a:79:c1:a8:61:2d:9e:9d:14:
                    68:8a:b0:2c:a0:3a:bc:8e:54:92:af:1a:43:27:a5:
                    93:a9:e5:4b:01:5c:f3:0f:18:72:d0:49:14:d2:bd:
                    e7:c3:83:b8:07:73:53:b7:a6:ac:be:28:d1:1b:e1:
                    c9:2b:9d:dc:14:a8:74:48:61:ba:8e:7a:ae:1e:33:
                    ec:a8:c6:fd:84:1c:50:41:15:b9:f2:50:04:e7:3a:
                    82:9d:61:f8:f2:a7:2b:ae:ed:45:ae:0e:34:b0:bb:
                    2e:28:0d:3c:45:a7:2e:d6:6e:d6:8b:d7:36:62:45:
                    12:f5:cc:ae:06:df:15:75:64:bd:f7:d0:1d:dc:1a:
                    29:5f:4f:4c:9d:8c:11:0a:7c:43:c9:0d:ea:62:e3:
                    56:5b:63:ba:7c:b7:92:82:36:f0:2b:23:c1:50:1a:
                    0b:dc:75:92:1c:fb:0b:14:10:df:cf:5c:4d:d7:9c:
                    6c:b7:f3:6f:c5:9f:d6:a9:62:6d:03:86:58:2c:cc:
                    8a:93:0b:1a:91:67:81:bd:12:7e:56:a9:e5:e0:3f:
                    a1:16:87:56:8e:12:e4:8f:35:34:c7:5e:1d:f4:a4:
                    5e:78:62:c3:65:6a:85:b1:ee:04:e9:a4:4a:8b:3e:
                    9c:8f:c0:72:79:03:03:4a:3e:4a:99:43:3c:49:d0:
                    61:e7
                Exponent: 65537 (0x10001)
        X509v3 extensions:
            X509v3 Basic Constraints: 
                CA:FALSE
            X509v3 Subject Key Identifier: 
                14:9A:3C:5D:69:13:D8:7B:E8:5E:92:2F:B0:45:32:47:52:F2:A4:85
            X509v3 Authority Key Identifier: 
                keyid:C7:1F:75:96:5D:5A:4A:CD:71:AB:39:78:3E:1D:80:2D:B4:13:C2:FF
                DirName:/C=FI/ST=Uusimaa/L=Helsinki/O=Codership Oy/OU=Galera Devel/CN=Galera Root CA/emailAddress=devel@galeracluster.com
                serial:92:CE:97:05:D3:DA:44:B3:CE:1E:D7:DA:F9:FE:E0:90

            X509v3 Key Usage: 
                Digital Signature, Key Encipherment
            X509v3 Subject Alternative Name: 
                DNS:galera-server-1
    Signature Algorithm: sha256WithRSAEncryption
         a4:ae:58:97:d3:06:7f:f8:56:52:6c:b0:56:f1:d7:b6:67:b8:
         7a:1f:65:02:af:45:1c:fc:3b:5d:55:64:40:5b:5c:51:dd:3a:
         26:64:4a:38:2c:fe:ab:74:12:b5:f2:0a:c3:e8:58:3f:16:15:
         b8:97:62:a5:34:d1:e8:4b:69:f8:7c:e5:af:f7:00:67:2f:43:
         50:eb:94:58:7f:10:73:63:2a:b9:5c:1d:27:10:dd:98:e8:50:
         53:24:5a:30:4e:ba:f4:db:33:25:9f:0f:35:92:90:d6:53:e1:
         5b:74:cb:bd:13:0b:2e:4c:d1:bf:36:68:bb:70:ff:1e:d8:87:
         9f:77:54:d0:d9:15:04:97:e5:97:25:92:ef:e6:ea:4b:12:74:
         6e:a5:c9:7e:45:aa:f9:3e:e4:7e:65:a3:68:ee:d1:12:e7:33:
         5e:67:cf:de:48:d0:c0:c0:d0:45:00:ef:a8:08:30:c6:ff:3e:
         09:88:ad:79:9a:ec:35:e0:a5:bd:3d:37:9d:33:11:f0:5f:84:
         fb:e8:18:67:b5:cb:26:6f:25:c1:1b:2e:fd:c2:d2:98:d0:3c:
         54:15:d1:1d:05:73:c5:2d:be:00:ef:cf:e7:53:0a:4f:b7:51:
         26:f9:b8:31:50:56:f9:ea:f7:a5:3a:ad:ca:93:08:1d:93:2d:
         d3:29:ac:e8
-----BEGIN CERTIFICATE-----
MIIFBjCCA+6gAwIBAgIRANX3xNMZ4WjEwWtKpUNiSpUwDQYJKoZIhvcNAQELBQAw
gZ0xCzAJBgNVBAYTAkZJMRAwDgYDVQQIDAdVdXNpbWFhMREwDwYDVQQHDAhIZWxz
aW5raTEVMBMGA1UECgwMQ29kZXJzaGlwIE95MRUwEwYDVQQLDAxHYWxlcmEgRGV2
ZWwxEzARBgNVBAMMCkdhbGVyYSBJbnQxJjAkBgkqhkiG9w0BCQEWF2RldmVsQGdh
bGVyYWNsdXN0ZXIuY29tMB4XDTIxMDEyMTEwMzAwNloXDTI0MDEwNjEwMzAwNlow
gaIxCzAJBgNVBAYTAkZJMRAwDgYDVQQIDAdVdXNpbWFhMREwDwYDVQQHDAhIZWxz
aW5raTEVMBMGA1UECgwMQ29kZXJzaGlwIE95MRUwEwYDVQQLDAxHYWxlcmEgRGV2
ZWwxGDAWBgNVBAMMD2dhbGVyYS1zZXJ2ZXItMTEmMCQGCSqGSIb3DQEJARYXZGV2
ZWxAZ2FsZXJhY2x1c3Rlci5jb20wggEiMA0GCSqGSIb3DQEBAQUAA4IBDwAwggEK
AoIBAQCm59B7kWp5wahhLZ6dFGiKsCygOryOVJKvGkMnpZOp5UsBXPMPGHLQSRTS
vefDg7gHc1O3pqy+KNEb4ckrndwUqHRIYbqOeq4eM+yoxv2EHFBBFbnyUATnOoKd
Yfjypyuu7UWuDjSwuy4oDTxFpy7WbtaL1zZiRRL1zK4G3xV1ZL330B3cGilfT0yd
jBEKfEPJDepi41ZbY7p8t5KCNvArI8FQGgvcdZIc+wsUEN/PXE3XnGy382/Fn9ap
Ym0DhlgszIqTCxqRZ4G9En5WqeXgP6EWh1aOEuSPNTTHXh30pF54YsNlaoWx7gTp
pEqLPpyPwHJ5AwNKPkqZQzxJ0GHnAgMBAAGjggE4MIIBNDAJBgNVHRMEAjAAMB0G
A1UdDgQWBBQUmjxdaRPYe+heki+wRTJHUvKkhTCB3gYDVR0jBIHWMIHTgBTHH3WW
XVpKzXGrOXg+HYAttBPC/6GBp6SBpDCBoTELMAkGA1UEBhMCRkkxEDAOBgNVBAgM
B1V1c2ltYWExETAPBgNVBAcMCEhlbHNpbmtpMRUwEwYDVQQKDAxDb2RlcnNoaXAg
T3kxFTATBgNVBAsMDEdhbGVyYSBEZXZlbDEXMBUGA1UEAwwOR2FsZXJhIFJvb3Qg
Q0ExJjAkBgkqhkiG9w0BCQEWF2RldmVsQGdhbGVyYWNsdXN0ZXIuY29tghEAks6X
BdPaRLPOHtfa+f7gkDALBgNVHQ8EBAMCBaAwGgYDVR0RBBMwEYIPZ2FsZXJhLXNl
cnZlci0xMA0GCSqGSIb3DQEBCwUAA4IBAQCkrliX0wZ/+FZSbLBW8de2Z7h6H2UC
r0Uc/DtdVWRAW1xR3TomZEo4LP6rdBK18grD6Fg/FhW4l2KlNNHoS2n4fOWv9wBn
L0NQ65RYfxBzYyq5XB0nEN2Y6FBTJFowTrr02zMlnw81kpDWU+FbdMu9EwsuTNG/
Nmi7cP8e2Iefd1TQ2RUEl+WXJZLv5upLEnRupcl+Rar5PuR+ZaNo7tES5zNeZ8/e
SNDAwNBFAO+oCDDG/z4JiK15muw14KW9PTedMxHwX4T76BhntcsmbyXBGy79wtKY
0DxUFdEdBXPFLb4A78/nUwpPt1Em+bgxUFb56velOq3Kkwgdky3TKazo
-----END CERTIFICATE-----
